target datalayout = "e-m:e-p270:32:32-p271:32:32-p272:64:64-i64:64-i128:128-f80:128-n8:16:32:64-S128"
target triple = "x86_64-pc-linux-gnu"

@.str = private unnamed_addr constant [9 x i8] c"%s(): %s\00", align 1
@.str.1 = private unnamed_addr constant [17 x i8] c"Invalid argument\00", align 1
@tjMCUWidth = internal constant [7 x i32] [i32 8, i32 16, i32 16, i32 8, i32 8, i32 32, i32 8], align 16
@tj3YUVPlaneWidth.FUNCTION_NAME = internal constant [17 x i8] c"tj3YUVPlaneWidth\00", align 16
@.str.30 = private unnamed_addr constant [19 x i8] c"Width is too large\00", align 1

; Function Attrs: nounwind uwtable
define i32 @tj3YUVPlaneWidth(i32 noundef %0, i32 noundef %1, i32 noundef %2) #0 {
  %4 = alloca i32, align 4
  %5 = alloca i32, align 4
  %6 = alloca i32, align 4
  %7 = alloca i64, align 8
  %8 = alloca i64, align 8
  %9 = alloca i32, align 4
  store i32 %0, ptr %4, align 4
  store i32 %1, ptr %5, align 4
  store i32 %2, ptr %6, align 4
  store i64 0, ptr %8, align 8
  %10 = load i32, ptr %5, align 4
  %11 = icmp slt i32 %10, 1
  br i1 %11, label %18, label %12

12:                                               ; preds = %3
  %13 = load i32, ptr %6, align 4
  %14 = icmp slt i32 %13, 0
  br i1 %14, label %18, label %15

15:                                               ; preds = %12
  %16 = load i32, ptr %6, align 4
  %17 = icmp sge i32 %16, 7
  br i1 %17, label %18, label %22

18:                                               ; preds = %15, %12, %3
  %19 = call align 16 ptr @llvm.threadlocal.address.p0(ptr align 16 @errStr)
  %20 = getelementptr inbounds [200 x i8], ptr %19, i64 0, i64 0
  %21 = call i32 (ptr, i64, ptr, ...) @snprintf(ptr noundef %20, i64 noundef 200, ptr noundef @.str, ptr noundef @tj3YUVPlaneWidth.FUNCTION_NAME, ptr noundef @.str.1) #11
  store i64 0, ptr %8, align 8
  br label %77

22:                                               ; preds = %15
  %23 = load i32, ptr %6, align 4
  %24 = icmp eq i32 %23, 3
  %25 = select i1 %24, i32 1, i32 3
  store i32 %25, ptr %9, align 4
  %26 = load i32, ptr %4, align 4
  %27 = icmp slt i32 %26, 0
  br i1 %27, label %32, label %28

28:                                               ; preds = %22
  %29 = load i32, ptr %4, align 4
  %30 = load i32, ptr %9, align 4
  %31 = icmp sge i32 %29, %30
  br i1 %31, label %32, label %36

32:                                               ; preds = %28, %22
  %33 = call align 16 ptr @llvm.threadlocal.address.p0(ptr align 16 @errStr)
  %34 = getelementptr inbounds [200 x i8], ptr %33, i64 0, i64 0
  %35 = call i32 (ptr, i64, ptr, ...) @snprintf(ptr noundef %34, i64 noundef 200, ptr noundef @.str, ptr noundef @tj3YUVPlaneWidth.FUNCTION_NAME, ptr noundef @.str.1) #11
  store i64 0, ptr %8, align 8
  br label %77

36:                                               ; preds = %28
  %37 = load i32, ptr %5, align 4
  %38 = sext i32 %37 to i64
  %39 = load i32, ptr %6, align 4
  %40 = sext i32 %39 to i64
  %41 = getelementptr inbounds [7 x i32], ptr @tjMCUWidth, i64 0, i64 %40
  %42 = load i32, ptr %41, align 4
  %43 = sdiv i32 %42, 8
  %44 = sext i32 %43 to i64
  %45 = add i64 %38, %44
  %46 = sub i64 %45, 1
  %47 = load i32, ptr %6, align 4
  %48 = sext i32 %47 to i64
  %49 = getelementptr inbounds [7 x i32], ptr @tjMCUWidth, i64 0, i64 %48
  %50 = load i32, ptr %49, align 4
  %51 = sdiv i32 %50, 8
  %52 = sub nsw i32 %51, 1
  %53 = xor i32 %52, -1
  %54 = sext i32 %53 to i64
  %55 = and i64 %46, %54
  store i64 %55, ptr %7, align 8
  %56 = load i32, ptr %4, align 4
  %57 = icmp eq i32 %56, 0
  br i1 %57, label %58, label %60

58:                                               ; preds = %36
  %59 = load i64, ptr %7, align 8
  store i64 %59, ptr %8, align 8
  br label %69

60:                                               ; preds = %36
  %61 = load i64, ptr %7, align 8
  %62 = mul i64 %61, 8
  %63 = load i32, ptr %6, align 4
  %64 = sext i32 %63 to i64
  %65 = getelementptr inbounds [7 x i32], ptr @tjMCUWidth, i64 0, i64 %64
  %66 = load i32, ptr %65, align 4
  %67 = sext i32 %66 to i64
  %68 = udiv i64 %62, %67
  store i64 %68, ptr %8, align 8
  br label %69

69:                                               ; preds = %60, %58
  %70 = load i64, ptr %8, align 8
  %71 = icmp ugt i64 %70, 2147483647
  br i1 %71, label %72, label %76

72:                                               ; preds = %69
  %73 = call align 16 ptr @llvm.threadlocal.address.p0(ptr align 16 @errStr)
  %74 = getelementptr inbounds [200 x i8], ptr %73, i64 0, i64 0
  %75 = call i32 (ptr, i64, ptr, ...) @snprintf(ptr noundef %74, i64 noundef 200, ptr noundef @.str, ptr noundef @tj3YUVPlaneWidth.FUNCTION_NAME, ptr noundef @.str.30) #11
  store i64 0, ptr %8, align 8
  br label %77

76:                                               ; preds = %69
  br label %77

77:                                               ; preds = %76, %72, %32, %18
  %78 = load i64, ptr %8, align 8
  %79 = trunc i64 %78 to i32
  ret i32 %79
}